(dp0
S'c'
p1
(lp2
(lp3
(lp4
F26.194690265486727
aF40.26548672566372
aF50.61946902654867
aF64.95575221238938
aF80.35398230088495
aF92.30088495575222
aa(lp5
F-3.076923076923066
aF-7.179487179487168
aF-11.025641025641022
aF-17.692307692307693
aF-25.897435897435898
aF-33.07692307692308
aaa(lp6
(lp7
F32.0353982300885
aF40.26548672566372
aF49.557522123893804
aF56.72566371681417
aF64.42477876106194
aF72.92035398230088
aa(lp8
F-9.743589743589752
aF-15.897435897435898
aF-24.871794871794876
aF-33.58974358974359
aF-44.871794871794876
aF-58.717948717948715
aaa(lp9
(lp10
F29.38053097345133
aF34.159292035398224
aF39.469026548672566
aF43.1858407079646
aF45.309734513274336
aF46.10619469026549
aa(lp11
F-13.076923076923066
aF-19.230769230769226
aI-30
aF-42.56410256410257
aF-56.66666666666667
aF-74.61538461538463
aaa(lp12
(lp13
F28.31858407079646
aF33.62831858407079
aF35.48672566371681
aF34.95575221238938
aF31.769911504424776
aF27.522123893805308
aa(lp14
F-13.846153846153854
aF-25.897435897435898
aF-37.948717948717956
aF-50.51282051282051
aF-64.87179487179488
aF-77.1794871794872
aaa(lp15
(lp16
F28.849557522123895
aF32.56637168141592
aF32.0353982300885
aF30.442477876106196
aF25.663716814159294
aF18.495575221238937
aa(lp17
F-18.205128205128204
aF-32.56410256410257
aF-42.82051282051283
aF-50.25641025641026
aF-63.07692307692308
aF-76.15384615384615
aaa(lp18
(lp19
F28.584070796460175
aF29.38053097345133
aF24.070796460176993
aF17.964601769911503
aF7.610619469026549
aF-3.274336283185841
aa(lp20
F-20.25641025641025
aF-30.51282051282051
aF-43.846153846153854
aF-51.79487179487181
aF-60.51282051282054
aF-66.92307692307692
aaa(lp21
(lp22
F24.336283185840706
aF30.70796460176991
aF30.70796460176991
aF24.86725663716814
aF13.451327433628318
aF-6.72566371681416
aa(lp23
F-7.179487179487168
aF-16.153846153846146
aF-32.30769230769231
aF-40.51282051282051
aF-47.17948717948718
aF-50.25641025641026
aaa(lp24
(lp25
F31.238938053097343
aF37.61061946902655
aF37.07964601769912
aF28.849557522123895
aF13.451327433628318
aF0.17699115044247726
aa(lp26
F-6.666666666666671
aF-16.66666666666667
aF-29.48717948717949
aF-39.48717948717949
aF-44.35897435897435
aF-45.38461538461539
aaa(lp27
(lp28
F16.106194690265486
aF32.56637168141592
aF41.5929203539823
aF46.63716814159292
aF38.141592920353986
aF16.106194690265486
aa(lp29
F1.5384615384615472
aF0.512820512820511
aF-4.615384615384613
aF-19.74358974358975
aF-33.07692307692308
aF-39.23076923076924
aaa(lp30
(lp31
F19.02654867256637
aF27.522123893805308
aF45.575221238938056
aF55.39823008849558
aF55.39823008849558
aF39.73451327433629
aa(lp32
F6.153846153846146
aF11.538461538461547
aF14.871794871794876
aF8.461538461538467
aF-7.948717948717956
aF-22.307692307692307
aaa(lp33
(lp34
F19.02654867256637
aF27.522123893805308
aF45.575221238938056
aF55.39823008849558
aF55.39823008849558
aF39.73451327433629
aF18.495575221238937
aF24.86725663716814
aF35.48672566371681
aF48.76106194690265
aF55.92920353982301
aF50.35398230088495
aa(lp35
F6.153846153846146
aF11.538461538461547
aF14.871794871794876
aF8.461538461538467
aF-7.948717948717956
aF-22.307692307692307
aF11.025641025641036
aF22.307692307692314
aF32.307692307692314
aF32.05128205128206
aF16.66666666666667
aF0.512820512820511
aaa(lp36
(lp37
F15.575221238938052
aF16.106194690265486
aF17.964601769911503
aF30.70796460176991
aF43.716814159292035
aF47.16814159292036
aa(lp38
F14.871794871794876
aF25.897435897435905
aF39.487179487179496
aF50.000000000000014
aF42.820512820512825
aF26.410256410256416
aaa(lp39
(lp40
F13.982300884955752
aF10.265486725663713
aF6.814159292035399
aF13.185840707964601
aF28.31858407079646
aF37.61061946902655
aa(lp41
F19.230769230769234
aF29.487179487179496
aF43.33333333333334
aF54.35897435897437
aF53.846153846153854
aF40.512820512820525
aaasS'cirVer'
p42
(lp43
(lp44
(lp45
F8.130158730158712
aF16.577777777777754
aF30.223809523809507
aF51.060317460317435
aF73.0587301587301
aF95.81587301587297
aF108.15238095238095
aa(lp46
F32.53968253968256
aF44.44444444444446
aF55.95238095238096
aF65.07936507936508
aF64.6825396825397
aF53.968253968253975
aF38.0952380952381
aaa(lp47
(lp48
F6.963492063492026
aF17.84761904761902
aF31.10317460317458
aF45.93968253968251
aF65.96031746031741
aF90.7412698412698
aF99.51746031746029
aa(lp49
F40.87301587301587
aF61.90476190476191
aF75.7936507936508
aF84.92063492063492
aF90.07936507936509
aF85.31746031746033
aF79.36507936507937
aaa(lp50
(lp51
F0.15079365079364493
aF4.249206349206332
aF11.120634920634899
aF23.59682539682538
aF44.45396825396824
aF62.06825396825394
aF73.66825396825394
aa(lp52
F37.69841269841271
aF62.301587301587304
aF80.15873015873017
aF99.20634920634922
aF113.4920634920635
aF117.06349206349206
aF117.06349206349206
aaa(lp53
(lp54
F-5.7777777777778
aF-6.888888888888914
aF-5.226984126984121
aF0.4507936507936563
aF16.92698412698411
aF32.16031746031746
aF-3.8555555555555827
aa(lp55
F55.55555555555556
aF77.77777777777779
aF93.25396825396825
aF112.6984126984127
aF131.74603174603175
aF140.0793650793651
aF36.11111111111114
aaa(lp56
(lp57
F-6.25555555555556
aF-13.388888888888886
aF-20.91428571428574
aF-26.422222222222246
aF-25.51746031746032
aF-17.44285714285715
aF-8.598412698412687
aa(lp58
F36.11111111111114
aF52.777777777777786
aF71.42857142857143
aF94.44444444444444
aF120.63492063492063
aF139.28571428571428
aF150.3968253968254
aaa(lp59
(lp60
F-11.43650793650798
aF-21.380952380952408
aF-32.522222222222226
aF-42.05555555555556
aF-50.36666666666669
aF-51.4968253968254
aF-45.41269841269842
aa(lp61
F40.87301587301587
aF54.76190476190476
aF69.44444444444446
aF86.11111111111111
aF108.33333333333333
aF125.79365079365078
aF146.8253968253968
aaa(lp62
(lp63
F-27.7873015873016
aF-41.73968253968255
aF-55.68412698412699
aF-68.01746031746032
aF-74.75555555555556
aF-77.50634920634921
aF-75.85873015873015
aa(lp64
F53.17460317460319
aF65.07936507936508
aF78.96825396825396
aF95.63492063492065
aF111.11111111111111
aF123.4126984126984
aF135.3174603174603
aaa(lp65
(lp66
F-41.763492063492066
aF-54.934920634920644
aF-69.6904761904762
aF-80.04920634920634
aF-88.4031746031746
aF-92.76031746031745
aF-94.715873015873
aa(lp67
F59.12698412698414
aF66.26984126984128
aF77.38095238095238
aF87.6984126984127
aF99.20634920634922
aF109.92063492063491
aF121.03174603174602
aaa(lp68
(lp69
F-28.206349206349216
aF-58.15555555555555
aF-81.32063492063492
aF-94.09206349206349
aF-105.25079365079364
aF-113.59523809523809
aa(lp70
F48.412698412698404
aF61.111111111111114
aF69.84126984126985
aF76.98412698412699
aF87.3015873015873
aF101.19047619047619
aaasS'frame'
p71
(lp72
(lp73
(lp74
F2.566734227435404
aF8.49713226098578
aF18.11893570227261
aF75.2425719090948
aF128.32636163698305
aF186.42287291388152
aF249.52520591659834
aa(lp75
F129.64336538876194
aF186.01319591185475
aF237.3659924964423
aF225.78463926861875
aF212.34809608003798
aF196.19216007589807
aF177.7748070205701
aaa(lp76
(lp77
F9.501056535426244
aF18.47427659666218
aF34.44391737461723
aF84.04329639052997
aF128.7127517357368
aF170.67057656647546
aF243.76040363965672
aa(lp78
F149.37772219586873
aF183.7802406313338
aF233.79533399456642
aF211.6365518133598
aF186.70145327525984
aF161.7508301349778
aF110.41355815257234
aaa(lp79
(lp80
F5.109319073698714
aF20.906464271852997
aF45.8113760834878
aF81.44206304713435
aF122.22346802363188
aF159.93790159127173
aF189.441545560395
aF212.5145543145457
aa(lp81
F110.87929621803443
aF172.34378369054295
aF229.28026219328132
aF204.2934149812411
aF167.42765966622105
aF124.13213161412739
aF85.82776316356896
aF54.35680710681788
aaa(lp82
(lp83
F20.921659964135245
aF45.75491017900532
aF53.85121441380258
aF80.64216971021719
aF105.71989431575818
aF133.78097046995535
aF151.95229353904264
aF163.69088420360137
aa(lp84
F174.28541111806715
aF215.97784450834547
aF226.12353172118884
aF200.92738983266662
aF166.83276211495814
aF107.89915431384824
aF54.789002896766874
aF15.8258968835882
aaa(lp85
(lp86
F10.356634611238064
aF40.20526973996286
aF73.74531027642414
aF92.72327396610461
aF109.14140325154165
aF123.19289318211219
aF126.08046918797703
aF127.45353400319118
aa(lp87
F152.58872741386003
aF211.38557074474966
aF205.165380137134
aF175.50304023459398
aF135.7497089137091
aF73.08206477209023
aF31.41920738281084
aF0.28203027297428207
aaa(lp88
(lp89
F1.8664021734442713
aF15.603950148777415
aF36.7726077019276
aF66.15205485359436
aF88.56958040450206
aF97.61524860925431
aF91.909094829445
aF81.16952003104922
aa(lp90
F146.12790547242227
aF194.29815860968563
aF229.22851351934108
aF199.1677088274613
aF151.20445038595886
aF90.79822329552806
aF49.54418043037646
aF12.383457673897055
aaa(lp91
(lp92
F-8.09694251584807
aF-16.11798697658375
aF-4.916124024321903
aF42.547759713657314
aF71.18892578377674
aF85.45776014489627
aF78.25779464401228
aF54.92604252016042
aa(lp93
F87.44490922420113
aF169.84173530553284
aF236.31808184915263
aF205.90279874078226
aF164.84540083660355
aF117.75152011729696
aF85.64923023847516
aF44.29427745914012
aaa(lp94
(lp95
F-11.074216223209305
aF-36.70015955841134
aF-46.47375910992287
aF7.513907456121416
aF62.72284272715504
aF85.09206951571866
aF68.40484712579237
aa(lp96
F75.06145155030401
aF155.98344042433914
aF234.70611065591444
aF221.27474233472768
aF186.7816637198672
aF142.024235628962
aF79.63862176031739
aaa(lp97
(lp98
F-23.3179524774678
aF-70.92328259088364
aF-106.2365776876968
aF-40.39846478933981
aF5.8924490059941945
aF37.21074647462157
aF25.118806330587773
aa(lp99
F77.73944542671094
aF147.54323170468757
aF211.46319375566003
aF221.45845012721549
aF208.8990469619216
aF170.14705248178018
aF102.74957954202424
aaasS'cirTran'
p100
(lp101
(lp102
(lp103
I0
aF4.326241134751768
aF13.951367781155
aF37.40501519756839
aF60.45592705167172
aF82.05040526849041
aF89.82269503546101
aF95.81560283687944
aF99.32117527862209
aI100
aa(lp104
I0
aF19.999999999999986
aF34.28571428571428
aF48.21428571428571
aF48.57142857142857
aF38.21428571428571
aF29.999999999999986
aF19.999999999999986
aF8.57142857142857
aI0
aaa(lp105
(lp106
F5.754812563323199
aF16.442502532928074
aF42.722897669706185
aF70.00253292806485
aF80.95744680851067
aF87.99772036474167
aF88.26621073961502
aa(lp107
F22.857142857142847
aF36.78571428571428
aF47.85714285714285
aF40.71428571428571
aF29.999999999999986
aF15.357142857142847
aF-8.92857142857143
aaa(lp108
(lp109
F7.187183383991879
aF21.428571428571416
aF41.31205673758868
aF69.64032421479232
aF79.49848024316111
aF78.73226950354612
aF74.78470111448837
aa(lp110
F26.785714285714278
aF42.85714285714285
aF49.999999999999986
aF38.57142857142857
aF18.57142857142857
aF2.5
aF-10.714285714285708
aaa(lp111
(lp112
F3.2864741641337076
aF11.507092198581546
aF29.64159067882474
aF57.64944275582576
aF70.01013171225938
aF72.07320162107396
aF65.62563323201621
aa(lp113
F26.785714285714278
aI45
aF58.928571428571416
aF57.14285714285713
aF42.85714285714285
aF24.64285714285714
aF6.428571428571416
aaa(lp114
(lp115
F-0.9498480243161112
aF2.668439716312051
aF14.789766970618018
aF33.254812563323185
aF47.78242147923001
aF58.72973657548127
aF57.91919959473151
aa(lp116
F32.14285714285714
aF52.499999999999986
aF70.7142857142857
aF77.85714285714285
aF74.64285714285714
aF61.78571428571428
aF33.21428571428571
aaa(lp117
(lp118
F-6.244934143870324
aF-7.240374873353616
aF-0.43313069908816715
aF14.498480243161083
aF31.870567375886537
aF44.940476190476176
aF47.35309017223912
aa(lp119
F38.928571428571416
aF58.2142857142857
aF77.85714285714285
aF88.57142857142856
aF87.49999999999999
aF73.2142857142857
aF53.57142857142856
aaa(lp120
(lp121
F-8.410587639311075
aF-15.103850050658579
aF-14.568135764944287
aF9.205927051671708
aF23.70187436676798
aF28.979229989868287
aF-22.815349544072973
aa(lp122
F28.214285714285708
aF40.71428571428571
aF91.78571428571428
aF96.07142857142856
aF83.92857142857142
aF72.14285714285714
aF66.07142857142856
aaa(lp123
(lp124
F-14.799898682877412
aF-30.367274569402255
aF-53.69174265450865
aF-57.17958459979741
aF-39.029888551165186
aF-12.824214792299927
aF-45.925785207700116
aa(lp125
F26.428571428571416
aF36.428571428571416
aF58.928571428571416
aF75.35714285714285
aF93.57142857142856
aF83.57142857142856
aF48.928571428571416
aaa(lp126
(lp127
F-24.022289766970644
aF-10.923252279635264
aF-48.47391084093215
aF-65.82446808510642
aF-79.2312563323202
aF-63.9070415400203
aF-42.99012158054714
aa(lp128
F25.714285714285708
aF19.64285714285714
aF30.357142857142847
aF37.5
aF56.78571428571428
aF78.2142857142857
aF76.78571428571428
aaa(lp129
(lp130
F-25.106382978723417
aF-42.49746707193519
aF-60.25329280648432
aF-84.0134245187437
aF-95.67502532928069
aF-92.41641337386022
aF-74.29331306990886
aa(lp131
F19.999999999999986
aF15.714285714285708
aF8.57142857142857
aF8.214285714285708
aF19.64285714285714
aF38.57142857142857
aF49.28571428571428
aaasS'beampre'
p132
(lp133
(lp134
(lp135
F19.86899563
aF30.7860262
aF43.66812227
aF57.6419214
aF73.36244541
aF87.77292576
aF99.25925926
aa(lp136
F-1.071491341
aF-2.781578271
aF-5.137561345
aF-7.924615031
aF-11.57475631
aF-15.01101843
aF-17.86980232
aaa(lp137
(lp138
F20.74235807860262
aF30.13100436681222
aF43.44978165938865
aF55.24017467248909
aF66.5938864628821
aF79.91266375545852
aF93.01310043668124
aa(lp139
F-2.586626468560306
aF-5.600335284653967
aF-10.555991185258293
aF-15.514959373774794
aF-20.90831046277394
aF-27.597712493409222
aF-34.50430597428583
aaa(lp140
(lp141
F18.99563318777294
aF30.13100436681222
aF41.48471615720524
aF51.7467248908297
aF60.917030567685586
aF67.68558951965066
aF73.58078602620087
aa(lp142
F-4.540876336744766
aF-11.668446739762327
aF-21.829599686346615
aF-33.076709884137514
aF-44.10946773561183
aF-53.41368448091717
aF-61.852920897156835
aaa(lp143
(lp144
F20.08733624454149
aF29.25764192139738
aF35.80786026200873
aF40.174672489082965
aF43.01310043668123
aF46.2882096069869
aF48.68995633187774
aa(lp145
F-7.5725661443616765
aF-17.52173266456663
aF-29.210323522651993
aF-41.98723755188125
aF-52.16684467397623
aF-65.81299768815823
aF-78.59417037327457
aaa(lp146
(lp147
(F17.22222222222223
tp148
a(F24.814814814814824
tp149
a(F27.962962962962962
tp150
a(F28.703703703703695
tp151
a(F27.77777777777777
tp152
a(F24.62962962962962
tp153
a(F22.592592592592595
tp154
aa(lp155
F-7.015593047
aF-19.14536469
aF-32.0215576
aF-45.27138718
aF-58.15695297
aF-75.28076005
aF-83.93575324
aaa(lp156
(lp157
F18.777292576419214
aF22.925764192139752
aF21.834061135371186
aF18.340611353711793
aF13.973799126637559
aF7.860262008733628
aF0.4366812227074277
aa(lp158
F-10.39274270958671
aF-24.90387605283437
aF-37.042464882988355
aF-49.18625873700434
aF-59.3814809306853
aF-70.66407992753524
aF-81.94951802830992
aaa(lp159
(lp160
F19.213973799126634
aF19.650655021834055
aF15.720524017467248
aF11.135371179039304
aF4.3668122270742415
aF-5.676855895196503
aF-17.030567685589517
aa(lp161
F-13.859288601673722
aF-29.02862087146971
aF-39.873051495937375
aF-47.034691146051614
aF-55.06793570105587
aF-65.27546067841064
aF-75.48582475969015
aaa(lp162
(lp163
F18.99563318777294
aF17.467248908296938
aF11.572052401746724
aF1.310043668122276
aF-9.3886462882096
aF-20.305676855895193
aF-28.60262008733624
aa(lp164
F-17.54397231197696
aF-29.466789243851988
aF-39.23188719293739
aF-48.356294023010264
aF-55.31446455851933
aF-61.4062352130004
aF-65.75858152960105
aaa(lp165
(lp166
F18.122270742358083
aF14.192139737991269
aF6.768558951965069
aF-0.8733624454148412
aF-11.135371179039296
aF-24.235807860262007
aF-36.46288209606987
aa(lp167
F-21.880230373004178
aF-31.424351399948623
aF-39.24229724066137
aF-44.0266605378074
aF-48.599983776548996
aF-52.962740140873635
aF-56.023294171725226
aaa(lp168
(lp169
F18.122270742358083
aF9.388646288209607
aF0.655021834061138
aF-7.4235807860262
aF-16.157205240174672
aF-27.947598253275107
aF-40.174672489082965
aa(lp170
F-21.23007557424257
aF-34.68553544148067
aF-39.68898292481782
aF-42.30710992740006
aF-44.27650168318304
aF-46.035799748536505
aF-47.14588938310327
aaa(lp171
(lp172
F17.030567685589517
aF18.340611353711793
aF13.755458515283841
aF4.148471615720524
aF-6.768558951965062
aF-18.34061135371179
aF-41.70305676855895
aa(lp173
F-10.82996471399408
aF-18.845701461462546
aF-30.34170643665419
aF-37.08079278597212
aF-40.35522597915286
aF-41.680614328011146
aF-41.94796328092258
aaas.